; ModuleID = 'source-C-CXX/44/1654.c'
source_filename = "source-C-CXX/44/1654.c"
target datalayout = "e-m:e-p270:32:32-p271:32:32-p272:64:64-i64:64-f80:128-n8:16:32:64-S128"
target triple = "x86_64-pc-linux-gnu"

@.str = private unnamed_addr constant [6 x i8] c"%s %s\00", align 1
@.str.1 = private unnamed_addr constant [3 x i8] c"%d\00", align 1

; Function Attrs: nofree nounwind sspstrong uwtable
define dso_local i32 @main() local_unnamed_addr #0 {
  %1 = alloca [50 x i8], align 16
  %2 = alloca [50 x i8], align 16
  %3 = getelementptr inbounds [50 x i8], [50 x i8]* %1, i64 0, i64 0
  call void @llvm.lifetime.start.p0i8(i64 50, i8* nonnull %3) #3
  %4 = getelementptr inbounds [50 x i8], [50 x i8]* %2, i64 0, i64 0
  call void @llvm.lifetime.start.p0i8(i64 50, i8* nonnull %4) #3
  %5 = call i32 (i8*, ...) @__isoc99_scanf(i8* getelementptr inbounds ([6 x i8], [6 x i8]* @.str, i64 0, i64 0), i8* nonnull %3, i8* nonnull %4)
  %6 = load i8, i8* %4, align 16, !tbaa !5
  %7 = icmp eq i8 %6, 0
  br i1 %7, label %34, label %8

8:                                                ; preds = %0, %26
  %9 = phi i64 [ %27, %26 ], [ 0, %0 ]
  %10 = phi i8 [ %30, %26 ], [ %6, %0 ]
  %11 = phi i32 [ %28, %26 ], [ 0, %0 ]
  %12 = load i8, i8* %3, align 16, !tbaa !5
  %13 = icmp eq i8 %12, %10
  br i1 %13, label %18, label %26

14:                                               ; preds = %18
  %15 = getelementptr inbounds [50 x i8], [50 x i8]* %1, i64 0, i64 %25
  %16 = load i8, i8* %15, align 1, !tbaa !5
  %17 = icmp eq i8 %16, 0
  br i1 %17, label %32, label %18, !llvm.loop !8

18:                                               ; preds = %8, %14
  %19 = phi i64 [ %25, %14 ], [ 0, %8 ]
  %20 = phi i8* [ %15, %14 ], [ %3, %8 ]
  %21 = add nuw nsw i64 %19, %9
  %22 = getelementptr inbounds [50 x i8], [50 x i8]* %2, i64 0, i64 %21
  %23 = load i8, i8* %22, align 1, !tbaa !5
  store i8 %23, i8* %20, align 1, !tbaa !5
  %24 = icmp eq i8 %23, 0
  %25 = add nuw i64 %19, 1
  br i1 %24, label %26, label %14

26:                                               ; preds = %18, %8
  %27 = add nuw i64 %9, 1
  %28 = add nuw nsw i32 %11, 1
  %29 = getelementptr inbounds [50 x i8], [50 x i8]* %2, i64 0, i64 %27
  %30 = load i8, i8* %29, align 1, !tbaa !5
  %31 = icmp eq i8 %30, 0
  br i1 %31, label %34, label %8, !llvm.loop !10

32:                                               ; preds = %14
  %33 = trunc i64 %9 to i32
  br label %34

34:                                               ; preds = %26, %32, %0
  %35 = phi i32 [ 0, %0 ], [ %33, %32 ], [ %28, %26 ]
  %36 = call i32 (i8*, ...) @printf(i8* nonnull dereferenceable(1) getelementptr inbounds ([3 x i8], [3 x i8]* @.str.1, i64 0, i64 0), i32 %35)
  call void @llvm.lifetime.end.p0i8(i64 50, i8* nonnull %4) #3
  call void @llvm.lifetime.end.p0i8(i64 50, i8* nonnull %3) #3
  ret i32 0
}

; Function Attrs: argmemonly mustprogress nofree nosync nounwind willreturn
declare void @llvm.lifetime.start.p0i8(i64 immarg, i8* nocapture) #1

; Function Attrs: nofree nounwind
declare noundef i32 @__isoc99_scanf(i8* nocapture noundef readonly, ...) local_unnamed_addr #2

; Function Attrs: nofree nounwind
declare noundef i32 @printf(i8* nocapture noundef readonly, ...) local_unnamed_addr #2

; Function Attrs: argmemonly mustprogress nofree nosync nounwind willreturn
declare void @llvm.lifetime.end.p0i8(i64 immarg, i8* nocapture) #1


!llvm.module.flags = !{!0, !1, !2, !3}
!llvm.ident = !{!4}

!0 = !{i32 1, !"wchar_size", i32 4}
!1 = !{i32 7, !"PIC Level", i32 2}
!2 = !{i32 7, !"PIE Level", i32 2}
!3 = !{i32 7, !"uwtable", i32 1}
!4 = !{!"clang version 13.0.0"}
!5 = !{!6, !6, i64 0}
!6 = !{!"omnipotent char", !7, i64 0}
!7 = !{!"Simple C/C++ TBAA"}
!8 = distinct !{!8, !9}
!9 = !{!"llvm.loop.mustprogress"}
!10 = distinct !{!10, !9}
